target datalayout = "e-m:e-p270:32:32-p271:32:32-p272:64:64-i64:64-i128:128-f80:128-n8:16:32:64-S128"
target triple = "x86_64-pc-linux-gnu"

; Function Attrs: nounwind uwtable
define ptr @mystrnstr(ptr noundef %0, ptr noundef %1, i32 noundef %2) #0 {
  %4 = alloca ptr, align 8
  %5 = alloca ptr, align 8
  %6 = alloca ptr, align 8
  %7 = alloca i32, align 4
  %8 = alloca i32, align 4
  %9 = alloca i32, align 4
  store ptr %0, ptr %5, align 8, !tbaa !7
  store ptr %1, ptr %6, align 8, !tbaa !7
  store i32 %2, ptr %7, align 4, !tbaa !3
  call void @llvm.lifetime.start.p0(i64 4, ptr %8) #7
  %10 = load ptr, ptr %6, align 8, !tbaa !7
  %11 = call i64 @strlen(ptr noundef %10) #8
  %12 = trunc i64 %11 to i32
  store i32 %12, ptr %8, align 4, !tbaa !3
  %13 = load i32, ptr %8, align 4, !tbaa !3
  %14 = icmp eq i32 %13, 0
  br i1 %14, label %15, label %17

15:                                               ; preds = %3
  %16 = load ptr, ptr %5, align 8, !tbaa !7
  store ptr %16, ptr %4, align 8
  store i32 1, ptr %9, align 4
  br label %56

17:                                               ; preds = %3
  br label %18

18:                                               ; preds = %50, %17
  %19 = load i32, ptr %7, align 4, !tbaa !3
  %20 = load i32, ptr %8, align 4, !tbaa !3
  %21 = icmp uge i32 %19, %20
  br i1 %21, label %22, label %28

22:                                               ; preds = %18
  %23 = load ptr, ptr %5, align 8, !tbaa !7
  %24 = getelementptr inbounds i8, ptr %23, i64 0
  %25 = load i8, ptr %24, align 1, !tbaa !29
  %26 = sext i8 %25 to i32
  %27 = icmp ne i32 %26, 0
  br label %28

28:                                               ; preds = %22, %18
  %29 = phi i1 [ false, %18 ], [ %27, %22 ]
  br i1 %29, label %30, label %55

30:                                               ; preds = %28
  %31 = load ptr, ptr %5, align 8, !tbaa !7
  %32 = getelementptr inbounds i8, ptr %31, i64 0
  %33 = load i8, ptr %32, align 1, !tbaa !29
  %34 = sext i8 %33 to i32
  %35 = load ptr, ptr %6, align 8, !tbaa !7
  %36 = getelementptr inbounds i8, ptr %35, i64 0
  %37 = load i8, ptr %36, align 1, !tbaa !29
  %38 = sext i8 %37 to i32
  %39 = icmp eq i32 %34, %38
  br i1 %39, label %40, label %50

40:                                               ; preds = %30
  %41 = load ptr, ptr %5, align 8, !tbaa !7
  %42 = load ptr, ptr %6, align 8, !tbaa !7
  %43 = load i32, ptr %8, align 4, !tbaa !3
  %44 = zext i32 %43 to i64
  %45 = call i32 @memcmp(ptr noundef %41, ptr noundef %42, i64 noundef %44) #8
  %46 = icmp eq i32 %45, 0
  br i1 %46, label %47, label %49

47:                                               ; preds = %40
  %48 = load ptr, ptr %5, align 8, !tbaa !7
  store ptr %48, ptr %4, align 8
  store i32 1, ptr %9, align 4
  br label %56

49:                                               ; preds = %40
  br label %50

50:                                               ; preds = %49, %30
  %51 = load ptr, ptr %5, align 8, !tbaa !7
  %52 = getelementptr inbounds nuw i8, ptr %51, i32 1
  store ptr %52, ptr %5, align 8, !tbaa !7
  %53 = load i32, ptr %7, align 4, !tbaa !3
  %54 = add i32 %53, -1
  store i32 %54, ptr %7, align 4, !tbaa !3
  br label %18, !llvm.loop !46

55:                                               ; preds = %28
  store ptr null, ptr %4, align 8
  store i32 1, ptr %9, align 4
  br label %56

56:                                               ; preds = %55, %47, %15
  call void @llvm.lifetime.end.p0(i64 4, ptr %8) #7
  %57 = load ptr, ptr %4, align 8
  ret ptr %57
}