; Function Attrs: nofree nounwind memory(argmem: read) uwtable
define noundef ptr @mystrnstr(ptr noundef readonly captures(ret: address, provenance) %0, ptr noundef readonly captures(none) %1, i32 noundef %2) local_unnamed_addr #14 {
  %4 = tail call i64 @strlen(ptr noundef nonnull dereferenceable(1) %1) #17
  %5 = trunc i64 %4 to i32
  %6 = icmp eq i32 %5, 0
  br i1 %6, label %.critedge, label %.preheader

.preheader:                                       ; preds = %3
  %7 = and i64 %4, 4294967295
  %.not19 = icmp ult i32 %2, %5
  br i1 %.not19, label %.critedge, label %.lr.ph

.lr.ph:                                           ; preds = %.preheader, %14
  %.01421 = phi i32 [ %16, %14 ], [ %2, %.preheader ]
  %.01520 = phi ptr [ %15, %14 ], [ %0, %.preheader ]
  %8 = load i8, ptr %.01520, align 1, !tbaa !20
  %.not18 = icmp eq i8 %8, 0
  br i1 %.not18, label %.critedge, label %9

9:                                                ; preds = %.lr.ph
  %10 = load i8, ptr %1, align 1, !tbaa !20
  %11 = icmp eq i8 %8, %10
  br i1 %11, label %12, label %14

12:                                               ; preds = %9
  %bcmp = tail call i32 @bcmp(ptr nonnull %.01520, ptr nonnull %1, i64 %7)
  %13 = icmp eq i32 %bcmp, 0
  br i1 %13, label %.critedge, label %14

14:                                               ; preds = %12, %9
  %15 = getelementptr inbounds nuw i8, ptr %.01520, i64 1
  %16 = add i32 %.01421, -1
  %.not = icmp ult i32 %16, %5
  br i1 %.not, label %.critedge, label %.lr.ph, !llvm.loop !31

.critedge:                                        ; preds = %12, %14, %.lr.ph, %.preheader, %3
  %.0 = phi ptr [ %0, %3 ], [ null, %.preheader ], [ %.01520, %12 ], [ null, %14 ], [ null, %.lr.ph ]
  ret ptr %.0
}